target datalayout = "e-m:e-p270:32:32-p271:32:32-p272:64:64-i64:64-i128:128-f80:128-n8:16:32:64-S128"
target triple = "x86_64-pc-linux-gnu"

%struct.json_dumper = type { ptr, ptr, i32, i32, i32, i32, [1100 x i8] }
%struct.sharkd_session_process_complete_pref_data = type { ptr, ptr }
%struct.pref_module = type { ptr, ptr, ptr, ptr, ptr, ptr, ptr, ptr, i32, i32, i8, i8, i32 }

@dumper = internal global %struct.json_dumper zeroinitializer, align 8
@.str.185 = private unnamed_addr constant [2 x i8] c"f\00", align 1
@.str.189 = private unnamed_addr constant [2 x i8] c"d\00", align 1

; Function Attrs: null_pointer_is_valid sspstrong uwtable
define internal void @sharkd_json_value_string(ptr noundef %0, ptr noundef %1) #0 {
  %3 = alloca ptr, align 8
  %4 = alloca ptr, align 8
  store ptr %0, ptr %3, align 8
  store ptr %1, ptr %4, align 8
  %5 = load ptr, ptr %3, align 8
  %6 = icmp ne ptr %5, null
  br i1 %6, label %7, label %9

7:                                                ; preds = %2
  %8 = load ptr, ptr %3, align 8
  call void @json_dumper_set_member_name(ptr noundef @dumper, ptr noundef %8)
  br label %9

9:                                                ; preds = %7, %2
  %10 = load ptr, ptr %4, align 8
  call void @json_dumper_value_string(ptr noundef @dumper, ptr noundef %10)
  ret void
}

; Function Attrs: null_pointer_is_valid sspstrong uwtable
define internal i32 @sharkd_session_process_complete_pref_cb(ptr noundef %0, ptr noundef %1) #0 {
  %3 = alloca i32, align 4
  %4 = alloca ptr, align 8
  %5 = alloca ptr, align 8
  %6 = alloca ptr, align 8
  %7 = alloca i32, align 4
  store ptr %0, ptr %4, align 8
  store ptr %1, ptr %5, align 8
  call void @llvm.lifetime.start.p0(i64 8, ptr %6) #21
  %8 = load ptr, ptr %5, align 8
  store ptr %8, ptr %6, align 8
  %9 = load ptr, ptr %6, align 8
  %10 = getelementptr inbounds nuw %struct.sharkd_session_process_complete_pref_data, ptr %9, i32 0, i32 1
  %11 = load ptr, ptr %10, align 8
  %12 = load ptr, ptr %4, align 8
  %13 = getelementptr inbounds nuw %struct.pref_module, ptr %12, i32 0, i32 0
  %14 = load ptr, ptr %13, align 8
  %15 = load ptr, ptr %6, align 8
  %16 = getelementptr inbounds nuw %struct.sharkd_session_process_complete_pref_data, ptr %15, i32 0, i32 1
  %17 = load ptr, ptr %16, align 8
  %18 = call i64 @strlen(ptr noundef %17) #22
  %19 = call i32 @strncmp(ptr noundef %11, ptr noundef %14, i64 noundef %18) #22
  %20 = icmp ne i32 %19, 0
  br i1 %20, label %21, label %22

21:                                               ; preds = %2
  store i32 0, ptr %3, align 4
  store i32 1, ptr %7, align 4
  br label %29

22:                                               ; preds = %2
  call void @json_dumper_begin_object(ptr noundef @dumper)
  %23 = load ptr, ptr %4, align 8
  %24 = getelementptr inbounds nuw %struct.pref_module, ptr %23, i32 0, i32 0
  %25 = load ptr, ptr %24, align 8
  call void @sharkd_json_value_string(ptr noundef @.str.185, ptr noundef %25)
  %26 = load ptr, ptr %4, align 8
  %27 = getelementptr inbounds nuw %struct.pref_module, ptr %26, i32 0, i32 1
  %28 = load ptr, ptr %27, align 8
  call void @sharkd_json_value_string(ptr noundef @.str.189, ptr noundef %28)
  call void @json_dumper_end_object(ptr noundef @dumper)
  store i32 0, ptr %3, align 4
  store i32 1, ptr %7, align 4
  br label %29

29:                                               ; preds = %22, %21
  call void @llvm.lifetime.end.p0(i64 8, ptr %6) #21
  %30 = load i32, ptr %3, align 4
  ret i32 %30
}