; Function Attrs: null_pointer_is_valid sspstrong uwtable
define internal noundef i32 @sharkd_session_process_complete_pref_cb(ptr noundef readonly captures(none) %0, ptr noundef readonly captures(none) %1) #0 {
  %3 = getelementptr inbounds nuw i8, ptr %1, i64 8
  %4 = load ptr, ptr %3, align 8
  %5 = load ptr, ptr %0, align 8
  %6 = tail call i64 @strlen(ptr noundef %4) #18
  %7 = tail call i32 @strncmp(ptr noundef %4, ptr noundef %5, i64 noundef %6) #18
  %.not = icmp eq i32 %7, 0
  br i1 %.not, label %8, label %12

8:                                                ; preds = %2
  tail call void @json_dumper_begin_object(ptr noundef nonnull @dumper)
  %9 = load ptr, ptr %0, align 8
  tail call void @json_dumper_set_member_name(ptr noundef nonnull @dumper, ptr noundef nonnull @.str.185)
  tail call void @json_dumper_value_string(ptr noundef nonnull @dumper, ptr noundef %9)
  %10 = getelementptr inbounds nuw i8, ptr %0, i64 8
  %11 = load ptr, ptr %10, align 8
  tail call void @json_dumper_set_member_name(ptr noundef nonnull @dumper, ptr noundef nonnull @.str.189)
  tail call void @json_dumper_value_string(ptr noundef nonnull @dumper, ptr noundef %11)
  tail call void @json_dumper_end_object(ptr noundef nonnull @dumper)
  br label %12

12:                                               ; preds = %2, %8
  ret i32 0
}